target datalayout = "e-m:e-p270:32:32-p271:32:32-p272:64:64-i64:64-i128:128-f80:128-n8:16:32:64-S128"
target triple = "x86_64-pc-linux-gnu"

%"class.clang::Expr" = type { %"class.clang::ValueStmt", %"class.clang::QualType" }
%"class.clang::ValueStmt" = type { %"class.clang::Stmt" }
%"class.clang::Stmt" = type { %union.anon }
%union.anon = type { %"class.clang::Stmt::PseudoObjectExprBitfields" }
%"class.clang::Stmt::PseudoObjectExprBitfields" = type { i64 }
%"class.clang::QualType" = type { %"class.llvm::PointerIntPair" }
%"class.llvm::PointerIntPair" = type { %"struct.llvm::detail::PunnedPointer" }
%"struct.llvm::detail::PunnedPointer" = type { [8 x i8] }
%"class.clang::Dependence" = type { i8 }
%"class.clang::Type" = type { %"class.clang::ExtQualsTypeCommonBase", %union.anon.0, [8 x i8] }
%"class.clang::ExtQualsTypeCommonBase" = type { ptr, %"class.clang::QualType" }
%union.anon.0 = type { %"class.clang::Type::FunctionTypeBitfields" }
%"class.clang::Type::FunctionTypeBitfields" = type { i64 }
%"class.clang::Type::TypeBitfields" = type <{ i8, i16, i8 }>

; Function Attrs: mustprogress nounwind uwtable
define linkonce_odr hidden noundef zeroext i8 @_ZN4llvm13to_underlyingIN5clang19TypeDependenceScope14TypeDependenceEEENSt15underlying_typeIT_E4typeES5_(i8 noundef zeroext %0) #0 comdat {
  %2 = alloca i8, align 1
  store i8 %0, ptr %2, align 1
  %3 = load i8, ptr %2, align 1
  ret i8 %3
}

; Function Attrs: mustprogress nounwind uwtable
define linkonce_odr hidden noundef zeroext i8 @_ZN4llvm13to_underlyingIN5clang10Dependence4BitsEEENSt15underlying_typeIT_E4typeES5_(i8 noundef zeroext %0) #0 comdat {
  %2 = alloca i8, align 1
  store i8 %0, ptr %2, align 1
  %3 = load i8, ptr %2, align 1
  ret i8 %3
}

; Function Attrs: mustprogress nounwind uwtable
define linkonce_odr hidden noundef zeroext i8 @_ZN4llvm17BitmaskEnumDetail10UnderlyingIN5clang19TypeDependenceScope14TypeDependenceEEENSt15underlying_typeIT_E4typeES6_(i8 noundef zeroext %0) #0 comdat {
  %2 = alloca i8, align 1
  %3 = alloca i8, align 1
  store i8 %0, ptr %2, align 1
  %4 = load i8, ptr %2, align 1
  %5 = call noundef zeroext i8 @_ZN4llvm13to_underlyingIN5clang19TypeDependenceScope14TypeDependenceEEENSt15underlying_typeIT_E4typeES5_(i8 noundef zeroext %4)
  store i8 %5, ptr %3, align 1
  %6 = load i8, ptr %3, align 1
  ret i8 %6
}

; Function Attrs: mustprogress nounwind uwtable
define linkonce_odr hidden noundef i64 @_ZNK4llvm6detail13PunnedPointerINS_12PointerUnionIJPKN5clang4TypeEPKNS3_8ExtQualsEEEEE5asIntEv(ptr noundef nonnull align 8 dereferenceable(8) %0) #0 comdat align 2 {
  %2 = alloca ptr, align 8
  %3 = alloca i64, align 8
  store ptr %0, ptr %2, align 8
  %4 = load ptr, ptr %2, align 8
  store i64 0, ptr %3, align 8
  %5 = getelementptr inbounds nuw %"struct.llvm::detail::PunnedPointer", ptr %4, i32 0, i32 0
  %6 = getelementptr inbounds [8 x i8], ptr %5, i64 0, i64 0
  call void @llvm.memcpy.p0.p0.i64(ptr align 8 %3, ptr align 8 %6, i64 8, i1 false)
  %7 = load i64, ptr %3, align 8
  ret i64 %7
}

; Function Attrs: mustprogress nounwind uwtable
define linkonce_odr hidden noundef zeroext i8 @_ZN4llvm13to_underlyingIN5clang19ExprDependenceScope14ExprDependenceEEENSt15underlying_typeIT_E4typeES5_(i8 noundef zeroext %0) #0 comdat {
  %2 = alloca i8, align 1
  store i8 %0, ptr %2, align 1
  %3 = load i8, ptr %2, align 1
  ret i8 %3
}

; Function Attrs: mustprogress nounwind uwtable
define linkonce_odr hidden noundef zeroext i8 @_ZN4llvm17BitmaskEnumDetailanIN5clang10Dependence4BitsEvEET_S5_S5_(i8 noundef zeroext %0, i8 noundef zeroext %1) #0 comdat {
  %3 = alloca i8, align 1
  %4 = alloca i8, align 1
  store i8 %0, ptr %3, align 1
  store i8 %1, ptr %4, align 1
  %5 = load i8, ptr %3, align 1
  %6 = call noundef zeroext i8 @_ZN4llvm17BitmaskEnumDetail10UnderlyingIN5clang10Dependence4BitsEEENSt15underlying_typeIT_E4typeES6_(i8 noundef zeroext %5)
  %7 = zext i8 %6 to i32
  %8 = load i8, ptr %4, align 1
  %9 = call noundef zeroext i8 @_ZN4llvm17BitmaskEnumDetail10UnderlyingIN5clang10Dependence4BitsEEENSt15underlying_typeIT_E4typeES6_(i8 noundef zeroext %8)
  %10 = zext i8 %9 to i32
  %11 = and i32 %7, %10
  %12 = trunc i32 %11 to i8
  ret i8 %12
}

; Function Attrs: mustprogress nounwind uwtable
define linkonce_odr hidden noundef zeroext i8 @_ZN4llvm17BitmaskEnumDetail10UnderlyingIN5clang10Dependence4BitsEEENSt15underlying_typeIT_E4typeES6_(i8 noundef zeroext %0) #0 comdat {
  %2 = alloca i8, align 1
  %3 = alloca i8, align 1
  store i8 %0, ptr %2, align 1
  %4 = load i8, ptr %2, align 1
  %5 = call noundef zeroext i8 @_ZN4llvm13to_underlyingIN5clang10Dependence4BitsEEENSt15underlying_typeIT_E4typeES5_(i8 noundef zeroext %4)
  store i8 %5, ptr %3, align 1
  %6 = load i8, ptr %3, align 1
  ret i8 %6
}

; Function Attrs: mustprogress nounwind uwtable
define linkonce_odr hidden noundef zeroext i8 @_ZN4llvm17BitmaskEnumDetailanIN5clang19TypeDependenceScope14TypeDependenceEvEET_S5_S5_(i8 noundef zeroext %0, i8 noundef zeroext %1) #0 comdat {
  %3 = alloca i8, align 1
  %4 = alloca i8, align 1
  store i8 %0, ptr %3, align 1
  store i8 %1, ptr %4, align 1
  %5 = load i8, ptr %3, align 1
  %6 = call noundef zeroext i8 @_ZN4llvm17BitmaskEnumDetail10UnderlyingIN5clang19TypeDependenceScope14TypeDependenceEEENSt15underlying_typeIT_E4typeES6_(i8 noundef zeroext %5)
  %7 = zext i8 %6 to i32
  %8 = load i8, ptr %4, align 1
  %9 = call noundef zeroext i8 @_ZN4llvm17BitmaskEnumDetail10UnderlyingIN5clang19TypeDependenceScope14TypeDependenceEEENSt15underlying_typeIT_E4typeES6_(i8 noundef zeroext %8)
  %10 = zext i8 %9 to i32
  %11 = and i32 %7, %10
  %12 = trunc i32 %11 to i8
  ret i8 %12
}

; Function Attrs: mustprogress nounwind uwtable
define linkonce_odr hidden noundef ptr @_ZNK4llvm14PointerIntPairINS_12PointerUnionIJPKN5clang4TypeEPKNS2_8ExtQualsEEEELj3EjNS_21PointerLikeTypeTraitsIS9_EENS_18PointerIntPairInfoIS9_Lj3ESB_EEE14getOpaqueValueEv(ptr noundef nonnull align 8 dereferenceable(8) %0) #0 comdat align 2 {
  %2 = alloca ptr, align 8
  store ptr %0, ptr %2, align 8
  %3 = load ptr, ptr %2, align 8
  %4 = getelementptr inbounds nuw %"class.llvm::PointerIntPair", ptr %3, i32 0, i32 0
  %5 = call noundef i64 @_ZNK4llvm6detail13PunnedPointerINS_12PointerUnionIJPKN5clang4TypeEPKNS3_8ExtQualsEEEEE5asIntEv(ptr noundef nonnull align 8 dereferenceable(8) %4)
  %6 = inttoptr i64 %5 to ptr
  ret ptr %6
}

; Function Attrs: mustprogress nounwind uwtable
define linkonce_odr hidden noundef zeroext i8 @_ZN4llvm17BitmaskEnumDetail10UnderlyingIN5clang19ExprDependenceScope14ExprDependenceEEENSt15underlying_typeIT_E4typeES6_(i8 noundef zeroext %0) #0 comdat {
  %2 = alloca i8, align 1
  %3 = alloca i8, align 1
  store i8 %0, ptr %2, align 1
  %4 = load i8, ptr %2, align 1
  %5 = call noundef zeroext i8 @_ZN4llvm13to_underlyingIN5clang19ExprDependenceScope14ExprDependenceEEENSt15underlying_typeIT_E4typeES5_(i8 noundef zeroext %4)
  store i8 %5, ptr %3, align 1
  %6 = load i8, ptr %3, align 1
  ret i8 %6
}

; Function Attrs: mustprogress nounwind uwtable
define linkonce_odr hidden noundef zeroext i8 @_ZN5clang10Dependence9translateINS0_4BitsENS_19ExprDependenceScope14ExprDependenceEEET0_T_S6_S5_(i8 noundef zeroext %0, i8 noundef zeroext %1, i8 noundef zeroext %2) #0 comdat align 2 {
  %4 = alloca i8, align 1
  %5 = alloca i8, align 1
  %6 = alloca i8, align 1
  store i8 %0, ptr %4, align 1
  store i8 %1, ptr %5, align 1
  store i8 %2, ptr %6, align 1
  %7 = load i8, ptr %4, align 1
  %8 = load i8, ptr %5, align 1
  %9 = call noundef zeroext i8 @_ZN4llvm17BitmaskEnumDetailanIN5clang10Dependence4BitsEvEET_S5_S5_(i8 noundef zeroext %7, i8 noundef zeroext %8)
  %10 = icmp ne i8 %9, 0
  br i1 %10, label %11, label %13

11:                                               ; preds = %3
  %12 = load i8, ptr %6, align 1
  br label %14

13:                                               ; preds = %3
  br label %14

14:                                               ; preds = %13, %11
  %15 = phi i8 [ %12, %11 ], [ 0, %13 ]
  ret i8 %15
}

; Function Attrs: mustprogress nounwind uwtable
define linkonce_odr noundef nonnull align 1 dereferenceable(1) ptr @_ZN4llvm17BitmaskEnumDetailaNIN5clang10Dependence4BitsEvEERT_S6_S5_(ptr noundef nonnull align 1 dereferenceable(1) %0, i8 noundef zeroext %1) #0 comdat {
  %3 = alloca ptr, align 8
  %4 = alloca i8, align 1
  store ptr %0, ptr %3, align 8
  store i8 %1, ptr %4, align 1
  %5 = load ptr, ptr %3, align 8
  %6 = load i8, ptr %5, align 1
  %7 = load i8, ptr %4, align 1
  %8 = call noundef zeroext i8 @_ZN4llvm17BitmaskEnumDetailanIN5clang10Dependence4BitsEvEET_S5_S5_(i8 noundef zeroext %6, i8 noundef zeroext %7)
  %9 = load ptr, ptr %3, align 8
  store i8 %8, ptr %9, align 1
  %10 = load ptr, ptr %3, align 8
  ret ptr %10
}

; Function Attrs: mustprogress nounwind uwtable
define linkonce_odr hidden noundef zeroext i8 @_ZN4llvm17BitmaskEnumDetailorIN5clang10Dependence4BitsEvEET_S5_S5_(i8 noundef zeroext %0, i8 noundef zeroext %1) #0 comdat {
  %3 = alloca i8, align 1
  %4 = alloca i8, align 1
  store i8 %0, ptr %3, align 1
  store i8 %1, ptr %4, align 1
  %5 = load i8, ptr %3, align 1
  %6 = call noundef zeroext i8 @_ZN4llvm17BitmaskEnumDetail10UnderlyingIN5clang10Dependence4BitsEEENSt15underlying_typeIT_E4typeES6_(i8 noundef zeroext %5)
  %7 = zext i8 %6 to i32
  %8 = load i8, ptr %4, align 1
  %9 = call noundef zeroext i8 @_ZN4llvm17BitmaskEnumDetail10UnderlyingIN5clang10Dependence4BitsEEENSt15underlying_typeIT_E4typeES6_(i8 noundef zeroext %8)
  %10 = zext i8 %9 to i32
  %11 = or i32 %7, %10
  %12 = trunc i32 %11 to i8
  ret i8 %12
}

; Function Attrs: mustprogress nounwind uwtable
define linkonce_odr hidden noundef zeroext i8 @_ZN5clang10Dependence9translateINS_19TypeDependenceScope14TypeDependenceENS0_4BitsEEET0_T_S6_S5_(i8 noundef zeroext %0, i8 noundef zeroext %1, i8 noundef zeroext %2) #0 comdat align 2 {
  %4 = alloca i8, align 1
  %5 = alloca i8, align 1
  %6 = alloca i8, align 1
  store i8 %0, ptr %4, align 1
  store i8 %1, ptr %5, align 1
  store i8 %2, ptr %6, align 1
  %7 = load i8, ptr %4, align 1
  %8 = load i8, ptr %5, align 1
  %9 = call noundef zeroext i8 @_ZN4llvm17BitmaskEnumDetailanIN5clang19TypeDependenceScope14TypeDependenceEvEET_S5_S5_(i8 noundef zeroext %7, i8 noundef zeroext %8)
  %10 = icmp ne i8 %9, 0
  br i1 %10, label %11, label %13

11:                                               ; preds = %3
  %12 = load i8, ptr %6, align 1
  br label %14

13:                                               ; preds = %3
  br label %14

14:                                               ; preds = %13, %11
  %15 = phi i8 [ %12, %11 ], [ 0, %13 ]
  ret i8 %15
}

; Function Attrs: mustprogress nounwind uwtable
define linkonce_odr hidden noundef ptr @_ZNK5clang8QualType12getCommonPtrEv(ptr noundef nonnull align 8 dereferenceable(8) %0) #0 comdat align 2 {
  %2 = alloca ptr, align 8
  %3 = alloca i64, align 8
  store ptr %0, ptr %2, align 8
  %4 = load ptr, ptr %2, align 8
  %5 = getelementptr inbounds nuw %"class.clang::QualType", ptr %4, i32 0, i32 0
  %6 = call noundef ptr @_ZNK4llvm14PointerIntPairINS_12PointerUnionIJPKN5clang4TypeEPKNS2_8ExtQualsEEEELj3EjNS_21PointerLikeTypeTraitsIS9_EENS_18PointerIntPairInfoIS9_Lj3ESB_EEE14getOpaqueValueEv(ptr noundef nonnull align 8 dereferenceable(8) %5)
  %7 = ptrtoint ptr %6 to i64
  store i64 %7, ptr %3, align 8
  %8 = load i64, ptr %3, align 8
  %9 = and i64 %8, -16
  store i64 %9, ptr %3, align 8
  %10 = load i64, ptr %3, align 8
  %11 = inttoptr i64 %10 to ptr
  ret ptr %11
}

; Function Attrs: mustprogress nounwind uwtable
define linkonce_odr hidden noundef zeroext i8 @_ZN4llvm17BitmaskEnumDetailorIN5clang19ExprDependenceScope14ExprDependenceEvEET_S5_S5_(i8 noundef zeroext %0, i8 noundef zeroext %1) #0 comdat {
  %3 = alloca i8, align 1
  %4 = alloca i8, align 1
  store i8 %0, ptr %3, align 1
  store i8 %1, ptr %4, align 1
  %5 = load i8, ptr %3, align 1
  %6 = call noundef zeroext i8 @_ZN4llvm17BitmaskEnumDetail10UnderlyingIN5clang19ExprDependenceScope14ExprDependenceEEENSt15underlying_typeIT_E4typeES6_(i8 noundef zeroext %5)
  %7 = zext i8 %6 to i32
  %8 = load i8, ptr %4, align 1
  %9 = call noundef zeroext i8 @_ZN4llvm17BitmaskEnumDetail10UnderlyingIN5clang19ExprDependenceScope14ExprDependenceEEENSt15underlying_typeIT_E4typeES6_(i8 noundef zeroext %8)
  %10 = zext i8 %9 to i32
  %11 = or i32 %7, %10
  %12 = trunc i32 %11 to i8
  ret i8 %12
}

; Function Attrs: mustprogress nounwind uwtable
define linkonce_odr hidden noundef zeroext i8 @_ZNK5clang10Dependence4exprEv(ptr noundef nonnull align 1 dereferenceable(1) %0) #0 comdat align 2 {
  %2 = alloca ptr, align 8
  store ptr %0, ptr %2, align 8
  %3 = load ptr, ptr %2, align 8
  %4 = getelementptr inbounds nuw %"class.clang::Dependence", ptr %3, i32 0, i32 0
  %5 = load i8, ptr %4, align 1
  %6 = call noundef zeroext i8 @_ZN5clang10Dependence9translateINS0_4BitsENS_19ExprDependenceScope14ExprDependenceEEET0_T_S6_S5_(i8 noundef zeroext %5, i8 noundef zeroext 1, i8 noundef zeroext 1)
  %7 = getelementptr inbounds nuw %"class.clang::Dependence", ptr %3, i32 0, i32 0
  %8 = load i8, ptr %7, align 1
  %9 = call noundef zeroext i8 @_ZN5clang10Dependence9translateINS0_4BitsENS_19ExprDependenceScope14ExprDependenceEEET0_T_S6_S5_(i8 noundef zeroext %8, i8 noundef zeroext 2, i8 noundef zeroext 2)
  %10 = call noundef zeroext i8 @_ZN4llvm17BitmaskEnumDetailorIN5clang19ExprDependenceScope14ExprDependenceEvEET_S5_S5_(i8 noundef zeroext %6, i8 noundef zeroext %9)
  %11 = getelementptr inbounds nuw %"class.clang::Dependence", ptr %3, i32 0, i32 0
  %12 = load i8, ptr %11, align 1
  %13 = call noundef zeroext i8 @_ZN5clang10Dependence9translateINS0_4BitsENS_19ExprDependenceScope14ExprDependenceEEET0_T_S6_S5_(i8 noundef zeroext %12, i8 noundef zeroext 4, i8 noundef zeroext 4)
  %14 = call noundef zeroext i8 @_ZN4llvm17BitmaskEnumDetailorIN5clang19ExprDependenceScope14ExprDependenceEvEET_S5_S5_(i8 noundef zeroext %10, i8 noundef zeroext %13)
  %15 = getelementptr inbounds nuw %"class.clang::Dependence", ptr %3, i32 0, i32 0
  %16 = load i8, ptr %15, align 1
  %17 = call noundef zeroext i8 @_ZN5clang10Dependence9translateINS0_4BitsENS_19ExprDependenceScope14ExprDependenceEEET0_T_S6_S5_(i8 noundef zeroext %16, i8 noundef zeroext 8, i8 noundef zeroext 8)
  %18 = call noundef zeroext i8 @_ZN4llvm17BitmaskEnumDetailorIN5clang19ExprDependenceScope14ExprDependenceEvEET_S5_S5_(i8 noundef zeroext %14, i8 noundef zeroext %17)
  %19 = getelementptr inbounds nuw %"class.clang::Dependence", ptr %3, i32 0, i32 0
  %20 = load i8, ptr %19, align 1
  %21 = call noundef zeroext i8 @_ZN5clang10Dependence9translateINS0_4BitsENS_19ExprDependenceScope14ExprDependenceEEET0_T_S6_S5_(i8 noundef zeroext %20, i8 noundef zeroext 16, i8 noundef zeroext 16)
  %22 = call noundef zeroext i8 @_ZN4llvm17BitmaskEnumDetailorIN5clang19ExprDependenceScope14ExprDependenceEvEET_S5_S5_(i8 noundef zeroext %18, i8 noundef zeroext %21)
  ret i8 %22
}

; Function Attrs: mustprogress nounwind uwtable
define linkonce_odr hidden i8 @_ZN5clang10Dependence8semanticEv(ptr noundef nonnull align 1 dereferenceable(1) %0) #0 comdat align 2 {
  %2 = alloca %"class.clang::Dependence", align 1
  %3 = alloca ptr, align 8
  store ptr %0, ptr %3, align 8
  %4 = load ptr, ptr %3, align 8
  call void @llvm.memcpy.p0.p0.i64(ptr align 1 %2, ptr align 1 %4, i64 1, i1 false)
  %5 = getelementptr inbounds nuw %"class.clang::Dependence", ptr %2, i32 0, i32 0
  %6 = call noundef nonnull align 1 dereferenceable(1) ptr @_ZN4llvm17BitmaskEnumDetailaNIN5clang10Dependence4BitsEvEERT_S6_S5_(ptr noundef nonnull align 1 dereferenceable(1) %5, i8 noundef zeroext 62)
  %7 = getelementptr inbounds nuw %"class.clang::Dependence", ptr %2, i32 0, i32 0
  %8 = load i8, ptr %7, align 1
  ret i8 %8
}

; Function Attrs: mustprogress nounwind uwtable
define linkonce_odr hidden void @_ZN5clang10DependenceC2ENS_19TypeDependenceScope14TypeDependenceE(ptr noundef nonnull align 1 dereferenceable(1) %0, i8 noundef zeroext %1) unnamed_addr #0 comdat align 2 {
  %3 = alloca ptr, align 8
  %4 = alloca i8, align 1
  store ptr %0, ptr %3, align 8
  store i8 %1, ptr %4, align 1
  %5 = load ptr, ptr %3, align 8
  %6 = getelementptr inbounds nuw %"class.clang::Dependence", ptr %5, i32 0, i32 0
  %7 = load i8, ptr %4, align 1
  %8 = call noundef zeroext i8 @_ZN5clang10Dependence9translateINS_19TypeDependenceScope14TypeDependenceENS0_4BitsEEET0_T_S6_S5_(i8 noundef zeroext %7, i8 noundef zeroext 1, i8 noundef zeroext 1)
  %9 = load i8, ptr %4, align 1
  %10 = call noundef zeroext i8 @_ZN5clang10Dependence9translateINS_19TypeDependenceScope14TypeDependenceENS0_4BitsEEET0_T_S6_S5_(i8 noundef zeroext %9, i8 noundef zeroext 2, i8 noundef zeroext 2)
  %11 = call noundef zeroext i8 @_ZN4llvm17BitmaskEnumDetailorIN5clang10Dependence4BitsEvEET_S5_S5_(i8 noundef zeroext %8, i8 noundef zeroext %10)
  %12 = load i8, ptr %4, align 1
  %13 = call noundef zeroext i8 @_ZN5clang10Dependence9translateINS_19TypeDependenceScope14TypeDependenceENS0_4BitsEEET0_T_S6_S5_(i8 noundef zeroext %12, i8 noundef zeroext 4, i8 noundef zeroext 12)
  %14 = call noundef zeroext i8 @_ZN4llvm17BitmaskEnumDetailorIN5clang10Dependence4BitsEvEET_S5_S5_(i8 noundef zeroext %11, i8 noundef zeroext %13)
  %15 = load i8, ptr %4, align 1
  %16 = call noundef zeroext i8 @_ZN5clang10Dependence9translateINS_19TypeDependenceScope14TypeDependenceENS0_4BitsEEET0_T_S6_S5_(i8 noundef zeroext %15, i8 noundef zeroext 16, i8 noundef zeroext 16)
  %17 = call noundef zeroext i8 @_ZN4llvm17BitmaskEnumDetailorIN5clang10Dependence4BitsEvEET_S5_S5_(i8 noundef zeroext %14, i8 noundef zeroext %16)
  %18 = load i8, ptr %4, align 1
  %19 = call noundef zeroext i8 @_ZN5clang10Dependence9translateINS_19TypeDependenceScope14TypeDependenceENS0_4BitsEEET0_T_S6_S5_(i8 noundef zeroext %18, i8 noundef zeroext 8, i8 noundef zeroext 32)
  %20 = call noundef zeroext i8 @_ZN4llvm17BitmaskEnumDetailorIN5clang10Dependence4BitsEvEET_S5_S5_(i8 noundef zeroext %17, i8 noundef zeroext %19)
  store i8 %20, ptr %6, align 1
  ret void
}

; Function Attrs: mustprogress nounwind uwtable
define linkonce_odr hidden noundef ptr @_ZNK5clang8QualType10getTypePtrEv(ptr noundef nonnull align 8 dereferenceable(8) %0) #0 comdat align 2 {
  %2 = alloca ptr, align 8
  store ptr %0, ptr %2, align 8
  %3 = load ptr, ptr %2, align 8
  %4 = call noundef ptr @_ZNK5clang8QualType12getCommonPtrEv(ptr noundef nonnull align 8 dereferenceable(8) %3)
  %5 = getelementptr inbounds nuw %"class.clang::ExtQualsTypeCommonBase", ptr %4, i32 0, i32 0
  %6 = load ptr, ptr %5, align 8
  ret ptr %6
}

; Function Attrs: mustprogress nounwind uwtable
define linkonce_odr noundef nonnull align 1 dereferenceable(1) ptr @_ZN4llvm17BitmaskEnumDetailoRIN5clang19ExprDependenceScope14ExprDependenceEvEERT_S6_S5_(ptr noundef nonnull align 1 dereferenceable(1) %0, i8 noundef zeroext %1) #0 comdat {
  %3 = alloca ptr, align 8
  %4 = alloca i8, align 1
  store ptr %0, ptr %3, align 8
  store i8 %1, ptr %4, align 1
  %5 = load ptr, ptr %3, align 8
  %6 = load i8, ptr %5, align 1
  %7 = load i8, ptr %4, align 1
  %8 = call noundef zeroext i8 @_ZN4llvm17BitmaskEnumDetailorIN5clang19ExprDependenceScope14ExprDependenceEvEET_S5_S5_(i8 noundef zeroext %6, i8 noundef zeroext %7)
  %9 = load ptr, ptr %3, align 8
  store i8 %8, ptr %9, align 1
  %10 = load ptr, ptr %3, align 8
  ret ptr %10
}

; Function Attrs: mustprogress nounwind uwtable
define linkonce_odr hidden noundef zeroext i8 @_ZN5clang30toExprDependenceForImpliedTypeENS_19TypeDependenceScope14TypeDependenceE(i8 noundef zeroext %0) #0 comdat {
  %2 = alloca i8, align 1
  %3 = alloca %"class.clang::Dependence", align 1
  %4 = alloca %"class.clang::Dependence", align 1
  store i8 %0, ptr %2, align 1
  %5 = load i8, ptr %2, align 1
  call void @_ZN5clang10DependenceC2ENS_19TypeDependenceScope14TypeDependenceE(ptr noundef nonnull align 1 dereferenceable(1) %4, i8 noundef zeroext %5)
  %6 = call i8 @_ZN5clang10Dependence8semanticEv(ptr noundef nonnull align 1 dereferenceable(1) %4)
  %7 = getelementptr inbounds nuw %"class.clang::Dependence", ptr %3, i32 0, i32 0
  store i8 %6, ptr %7, align 1
  %8 = call noundef zeroext i8 @_ZNK5clang10Dependence4exprEv(ptr noundef nonnull align 1 dereferenceable(1) %3)
  ret i8 %8
}

; Function Attrs: mustprogress nounwind uwtable
define linkonce_odr hidden noundef zeroext i8 @_ZNK5clang4Type13getDependenceEv(ptr noundef nonnull align 16 dereferenceable(24) %0) #0 comdat align 2 {
  %2 = alloca ptr, align 8
  store ptr %0, ptr %2, align 8
  %3 = load ptr, ptr %2, align 8
  %4 = getelementptr inbounds nuw %"class.clang::Type", ptr %3, i32 0, i32 1
  %5 = getelementptr inbounds nuw %"class.clang::Type::TypeBitfields", ptr %4, i32 0, i32 1
  %6 = load i16, ptr %5, align 1
  %7 = and i16 %6, 31
  %8 = zext i16 %7 to i32
  %9 = trunc i32 %8 to i8
  ret i8 %9
}

; Function Attrs: mustprogress nounwind uwtable
define linkonce_odr hidden noundef ptr @_ZNK5clang8QualTypeptEv(ptr noundef nonnull align 8 dereferenceable(8) %0) #0 comdat align 2 {
  %2 = alloca ptr, align 8
  store ptr %0, ptr %2, align 8
  %3 = load ptr, ptr %2, align 8
  %4 = call noundef ptr @_ZNK5clang8QualType10getTypePtrEv(ptr noundef nonnull align 8 dereferenceable(8) %3)
  ret ptr %4
}

; Function Attrs: mustprogress nounwind uwtable
define linkonce_odr hidden i64 @_ZNK5clang4Expr7getTypeEv(ptr noundef nonnull align 8 dereferenceable(16) %0) #0 comdat align 2 {
  %2 = alloca %"class.clang::QualType", align 8
  %3 = alloca ptr, align 8
  store ptr %0, ptr %3, align 8
  %4 = load ptr, ptr %3, align 8
  %5 = getelementptr inbounds nuw %"class.clang::Expr", ptr %4, i32 0, i32 1
  call void @llvm.memcpy.p0.p0.i64(ptr align 8 %2, ptr align 8 %5, i64 8, i1 false)
  %6 = getelementptr inbounds nuw %"class.clang::QualType", ptr %2, i32 0, i32 0
  %7 = getelementptr inbounds nuw %"class.llvm::PointerIntPair", ptr %6, i32 0, i32 0
  %8 = getelementptr inbounds nuw %"struct.llvm::detail::PunnedPointer", ptr %7, i32 0, i32 0
  %9 = load i64, ptr %8, align 8
  ret i64 %9
}

; Function Attrs: mustprogress nounwind uwtable
define dso_local noundef zeroext i8 @_ZN5clang17computeDependenceEPNS_10LambdaExprEb(ptr noundef %0, i1 noundef zeroext %1) #0 {
  %3 = alloca ptr, align 8
  %4 = alloca i8, align 1
  %5 = alloca i8, align 1
  %6 = alloca %"class.clang::QualType", align 8
  store ptr %0, ptr %3, align 8
  %7 = zext i1 %1 to i8
  store i8 %7, ptr %4, align 1
  %8 = load ptr, ptr %3, align 8
  %9 = call i64 @_ZNK5clang4Expr7getTypeEv(ptr noundef nonnull align 8 dereferenceable(16) %8)
  %10 = getelementptr inbounds nuw %"class.clang::QualType", ptr %6, i32 0, i32 0
  %11 = getelementptr inbounds nuw %"class.llvm::PointerIntPair", ptr %10, i32 0, i32 0
  %12 = getelementptr inbounds nuw %"struct.llvm::detail::PunnedPointer", ptr %11, i32 0, i32 0
  store i64 %9, ptr %12, align 8
  %13 = call noundef ptr @_ZNK5clang8QualTypeptEv(ptr noundef nonnull align 8 dereferenceable(8) %6)
  %14 = call noundef zeroext i8 @_ZNK5clang4Type13getDependenceEv(ptr noundef nonnull align 16 dereferenceable(24) %13)
  %15 = call noundef zeroext i8 @_ZN5clang30toExprDependenceForImpliedTypeENS_19TypeDependenceScope14TypeDependenceE(i8 noundef zeroext %14)
  store i8 %15, ptr %5, align 1
  %16 = load i8, ptr %4, align 1
  %17 = trunc i8 %16 to i1
  br i1 %17, label %18, label %20

18:                                               ; preds = %2
  %19 = call noundef nonnull align 1 dereferenceable(1) ptr @_ZN4llvm17BitmaskEnumDetailoRIN5clang19ExprDependenceScope14ExprDependenceEvEERT_S6_S5_(ptr noundef nonnull align 1 dereferenceable(1) %5, i8 noundef zeroext 1)
  br label %20

20:                                               ; preds = %18, %2
  %21 = load i8, ptr %5, align 1
  ret i8 %21
}