; Function Attrs: mustprogress nofree norecurse nosync nounwind willreturn memory(read, inaccessiblemem: none) uwtable
define dso_local noundef zeroext range(i8 0, 32) i8 @_ZN5clang17computeDependenceEPNS_10LambdaExprEb(ptr noundef readonly captures(none) %0, i1 noundef zeroext %1) local_unnamed_addr #0 {
  %3 = getelementptr inbounds nuw i8, ptr %0, i64 8
  %.sroa.0.0.copyload.i = load i64, ptr %3, align 8
  %4 = and i64 %.sroa.0.0.copyload.i, -16
  %5 = inttoptr i64 %4 to ptr
  %6 = load ptr, ptr %5, align 16
  %7 = getelementptr inbounds nuw i8, ptr %6, i64 17
  %8 = load i16, ptr %7, align 1
  %9 = trunc i16 %8 to i8
  %10 = and i8 %9, 4
  %.not.i6.i.i = icmp eq i8 %10, 0
  %11 = select i1 %.not.i6.i.i, i8 0, i8 12
  %12 = and i8 %9, 18
  %13 = zext i1 %1 to i8
  %14 = or disjoint i8 %12, %13
  %spec.select = or disjoint i8 %14, %11
  ret i8 %spec.select
}